; Function Attrs: mustprogress uwtable
define { ptr, i64 } @_ZN4base10TrimStringENS_16BasicStringPieceINSt7__cxx1112basic_stringIcSt11char_traitsIcESaIcEEEEERKS7_NS_13TrimPositionsE(ptr %0, i64 %1, ptr noundef nonnull readonly align 8 captures(none) dereferenceable(16) %2, i32 noundef %3) local_unnamed_addr #3 {
  %5 = alloca %"class.base::BasicStringPiece", align 8
  %6 = alloca %"class.base::BasicStringPiece", align 8
  %.sroa.0.0.copyload = load ptr, ptr %2, align 8, !tbaa !71
  %.sroa.2.0..sroa_idx = getelementptr inbounds nuw i8, ptr %2, i64 8
  %.sroa.2.0.copyload = load i64, ptr %.sroa.2.0..sroa_idx, align 8, !tbaa !52
  call void @llvm.lifetime.start.p0(i64 16, ptr nonnull %5)
  call void @llvm.lifetime.start.p0(i64 16, ptr nonnull %6)
  store ptr %0, ptr %5, align 8
  %7 = getelementptr inbounds nuw i8, ptr %5, i64 8
  store i64 %1, ptr %7, align 8
  store ptr %.sroa.0.0.copyload, ptr %6, align 8
  %8 = getelementptr inbounds nuw i8, ptr %6, i64 8
  store i64 %.sroa.2.0.copyload, ptr %8, align 8
  %9 = and i32 %3, 1
  %.not.i = icmp eq i32 %9, 0
  br i1 %.not.i, label %12, label %10

10:                                               ; preds = %4
  %11 = call noundef i64 @_ZN4base8internal17find_first_not_ofERKNS_16BasicStringPieceINSt7__cxx1112basic_stringIcSt11char_traitsIcESaIcEEEEESA_m(ptr noundef nonnull align 8 dereferenceable(16) %5, ptr noundef nonnull align 8 dereferenceable(16) %6, i64 noundef 0)
  br label %12

12:                                               ; preds = %10, %4
  %13 = phi i64 [ %11, %10 ], [ 0, %4 ]
  %14 = and i32 %3, 2
  %.not5.i = icmp eq i32 %14, 0
  br i1 %.not5.i, label %18, label %15

15:                                               ; preds = %12
  %16 = call noundef i64 @_ZN4base8internal16find_last_not_ofERKNS_16BasicStringPieceINSt7__cxx1112basic_stringIcSt11char_traitsIcESaIcEEEEESA_m(ptr noundef nonnull align 8 dereferenceable(16) %5, ptr noundef nonnull align 8 dereferenceable(16) %6, i64 noundef -1)
  %17 = add i64 %16, 1
  br label %_ZN4base16TrimStringPieceTINSt7__cxx1112basic_stringIcSt11char_traitsIcESaIcEEEEENS_16BasicStringPieceIT_EES9_S9_NS_13TrimPositionsE.exit

18:                                               ; preds = %12
  %19 = load i64, ptr %7, align 8, !tbaa !49
  br label %_ZN4base16TrimStringPieceTINSt7__cxx1112basic_stringIcSt11char_traitsIcESaIcEEEEENS_16BasicStringPieceIT_EES9_S9_NS_13TrimPositionsE.exit

_ZN4base16TrimStringPieceTINSt7__cxx1112basic_stringIcSt11char_traitsIcESaIcEEEEENS_16BasicStringPieceIT_EES9_S9_NS_13TrimPositionsE.exit: ; preds = %15, %18
  %20 = phi i64 [ %17, %15 ], [ %19, %18 ]
  %21 = sub i64 %20, %13
  %22 = call { ptr, i64 } @_ZN4base8internal6substrERKNS_16BasicStringPieceINSt7__cxx1112basic_stringIcSt11char_traitsIcESaIcEEEEEmm(ptr noundef nonnull align 8 dereferenceable(16) %5, i64 noundef %13, i64 noundef %21)
  call void @llvm.lifetime.end.p0(i64 16, ptr nonnull %5)
  call void @llvm.lifetime.end.p0(i64 16, ptr nonnull %6)
  ret { ptr, i64 } %22
}